; Function Attrs: nounwind uwtable
define internal void @_foreach_popup_all(ptr noundef %0, ptr readnone captures(none) %1, ptr noundef %2, ptr noundef readonly captures(none) %3) #2 {
  %5 = getelementptr inbounds nuw i8, ptr %3, i64 8
  %6 = load ptr, ptr %5, align 8
  %7 = load ptr, ptr %3, align 8
  %8 = getelementptr inbounds nuw i8, ptr %7, i64 8
  %9 = load i32, ptr %8, align 8
  tail call void %6(ptr noundef %0, ptr noundef %2, i32 noundef %9) #16
  ret void
}